; Function Attrs: null_pointer_is_valid sspstrong uwtable
define internal i32 @format_amqp_0_10_str(ptr noundef %0, i32 noundef %1, i32 noundef %2, ptr noundef writeonly captures(none) initializes((0, 8)) %3) #0 {
  switch i32 %2, label %14 [
    i32 1, label %5
    i32 2, label %8
    i32 4, label %11
  ]

5:                                                ; preds = %4
  %6 = tail call zeroext i8 @tvb_get_uint8(ptr noundef %0, i32 noundef %1)
  %7 = zext i8 %6 to i32
  br label %17

8:                                                ; preds = %4
  %9 = tail call zeroext i16 @tvb_get_ntohs(ptr noundef %0, i32 noundef %1)
  %10 = zext i16 %9 to i32
  br label %17

11:                                               ; preds = %4
  %12 = tail call i32 @tvb_get_ntohl(ptr noundef %0, i32 noundef %1)
  %13 = tail call range(i32 0, 65537) i32 @llvm.umin.i32(i32 %12, i32 65536)
  br label %17

14:                                               ; preds = %4
  %15 = tail call ptr @wmem_packet_scope()
  %16 = tail call noalias ptr (ptr, ptr, ...) @wmem_strdup_printf(ptr noundef %15, ptr noundef nonnull @.str.1502, i32 noundef %2)
  store ptr %16, ptr %3, align 8
  br label %22

17:                                               ; preds = %8, %11, %5
  %.0 = phi i32 [ %7, %5 ], [ %10, %8 ], [ %13, %11 ]
  %18 = add i32 %2, %1
  %19 = tail call ptr @wmem_packet_scope()
  %20 = tail call ptr @tvb_get_string_enc(ptr noundef %19, ptr noundef %0, i32 noundef %18, i32 noundef %.0, i32 noundef 2)
  store ptr %20, ptr %3, align 8
  %21 = add nuw nsw i32 %.0, %2
  br label %22

22:                                               ; preds = %17, %14
  %.020 = phi i32 [ %21, %17 ], [ %2, %14 ]
  ret i32 %.020
}